; Function Attrs: nounwind uwtable
define hidden ptr @ASN1_OBJECT_create(i32 noundef %0, ptr noundef %1, i32 noundef %2, ptr noundef %3, ptr noundef %4) local_unnamed_addr #0 {
  %6 = alloca %struct.asn1_object_st, align 8
  call void @llvm.lifetime.start.p0(i64 40, ptr nonnull %6) #9
  store ptr %3, ptr %6, align 8, !tbaa !26
  %7 = getelementptr inbounds nuw i8, ptr %6, i64 8
  store ptr %4, ptr %7, align 8, !tbaa !27
  %8 = getelementptr inbounds nuw i8, ptr %6, i64 24
  store ptr %1, ptr %8, align 8, !tbaa !6
  %9 = getelementptr inbounds nuw i8, ptr %6, i64 16
  store i32 %0, ptr %9, align 8, !tbaa !28
  %10 = getelementptr inbounds nuw i8, ptr %6, i64 20
  store i32 %2, ptr %10, align 4, !tbaa !13
  %11 = getelementptr inbounds nuw i8, ptr %6, i64 32
  store i32 13, ptr %11, align 8, !tbaa !25
  %12 = call ptr @OBJ_dup(ptr noundef nonnull %6) #9
  call void @llvm.lifetime.end.p0(i64 40, ptr nonnull %6) #9
  ret ptr %12
}